; Function Attrs: mustprogress uwtable
define noundef i32 @_ZNK6casadi7Project10sp_reverseEPPyS2_PxS1_(ptr noundef nonnull align 8 dereferenceable(64) %0, ptr nocapture noundef readonly %1, ptr nocapture noundef readonly %2, ptr nocapture readnone %3, ptr nocapture readnone %4) unnamed_addr #3 align 2 {
  %6 = getelementptr inbounds i8, ptr %0, i64 32
  %7 = getelementptr inbounds i8, ptr %0, i64 40
  %8 = load ptr, ptr %7, align 8
  %9 = load ptr, ptr %6, align 8
  %.not.i.i.i.not = icmp eq ptr %8, %9
  br i1 %.not.i.i.i.not, label %10, label %_ZNK6casadi6MXNode3depEx.exit

10:                                               ; preds = %5
  tail call void (ptr, ...) @_ZSt24__throw_out_of_range_fmtPKcz(ptr noundef nonnull @.str.10, i64 noundef 0, i64 noundef 0) #17
  unreachable

_ZNK6casadi6MXNode3depEx.exit:                    ; preds = %5
  %11 = tail call noundef nonnull align 8 dereferenceable(8) ptr @_ZNK6casadi2MX8sparsityEv(ptr noundef nonnull align 8 dereferenceable(8) %9)
  %12 = load ptr, ptr %1, align 8
  %13 = load ptr, ptr %2, align 8
  %14 = getelementptr inbounds i8, ptr %0, i64 56
  tail call void @_ZNK6casadi8Sparsity3borIyEEvPT_PKS2_RKS0_(ptr noundef nonnull align 8 dereferenceable(8) %11, ptr noundef %12, ptr noundef %13, ptr noundef nonnull align 8 dereferenceable(8) %14)
  %15 = load ptr, ptr %2, align 8
  %16 = load ptr, ptr %0, align 8
  %17 = getelementptr inbounds i8, ptr %16, i64 352
  %18 = load ptr, ptr %17, align 8
  %19 = tail call noundef nonnull align 8 dereferenceable(8) ptr %18(ptr noundef nonnull align 8 dereferenceable(64) %0, i64 noundef 0)
  %20 = tail call noundef i64 @_ZNK6casadi8Sparsity3nnzEv(ptr noundef nonnull align 8 dereferenceable(8) %19)
  %.not5.i.i.i = icmp eq i64 %20, 0
  br i1 %.not5.i.i.i, label %_ZSt4fillIPyiEvT_S1_RKT0_.exit, label %.lr.ph.i.i.i.preheader

.lr.ph.i.i.i.preheader:                           ; preds = %_ZNK6casadi6MXNode3depEx.exit
  %21 = shl i64 %20, 3
  tail call void @llvm.memset.p0.i64(ptr align 8 %15, i8 0, i64 %21, i1 false)
  br label %_ZSt4fillIPyiEvT_S1_RKT0_.exit

_ZSt4fillIPyiEvT_S1_RKT0_.exit:                   ; preds = %.lr.ph.i.i.i.preheader, %_ZNK6casadi6MXNode3depEx.exit
  ret i32 0
}